; Function Attrs: mustprogress uwtable
define void @_ZN18duckdb_fastpforlib8internal13__fastunpack2EPKjPm(ptr noalias noundef %0, ptr noalias noundef initializes((0, 32)) %1) local_unnamed_addr #5 {
  %3 = alloca ptr, align 8
  store ptr %0, ptr %3, align 8, !tbaa !1879
  tail call void @llvm.experimental.noalias.scope.decl(metadata !4783)
  tail call void @llvm.experimental.noalias.scope.decl(metadata !4786)
  tail call void @llvm.experimental.noalias.scope.decl(metadata !4789)
  %4 = load i32, ptr %0, align 4, !tbaa !7, !alias.scope !4786, !noalias !4791
  %5 = and i32 %4, 3
  %6 = zext nneg i32 %5 to i64
  store i64 %6, ptr %1, align 8, !tbaa !9, !alias.scope !4791, !noalias !4786
  %7 = getelementptr inbounds nuw i8, ptr %1, i64 8
  %8 = lshr i32 %4, 2
  %9 = and i32 %8, 3
  %10 = zext nneg i32 %9 to i64
  store i64 %10, ptr %7, align 8, !tbaa !9, !alias.scope !4792, !noalias !4797
  %11 = getelementptr inbounds nuw i8, ptr %1, i64 16
  %12 = lshr i32 %4, 4
  %13 = and i32 %12, 3
  %14 = zext nneg i32 %13 to i64
  store i64 %14, ptr %11, align 8, !tbaa !9, !alias.scope !4799, !noalias !4804
  %15 = getelementptr inbounds nuw i8, ptr %1, i64 24
  %16 = lshr i32 %4, 6
  %17 = and i32 %16, 3
  %18 = zext nneg i32 %17 to i64
  store i64 %18, ptr %15, align 8, !tbaa !9, !alias.scope !4806, !noalias !4811
  call void @_ZN18duckdb_fastpforlib8internal8UnrollerILt2ELt4EE6UnpackERrPKjPm(ptr noundef nonnull align 8 dereferenceable(8) %3, ptr noundef nonnull %1)
  ret void
}